; Function Attrs: nofree norecurse nosync nounwind memory(argmem: read) uwtable
define zeroext i16 @crc16_0x9949_seed(ptr noundef readonly captures(none) %0, i32 noundef %1, i16 noundef zeroext %2) local_unnamed_addr #0 {
  %.not8.i = icmp eq i32 %1, 0
  br i1 %.not8.i, label %crc16_reflected.exit, label %.lr.ph.preheader.i

.lr.ph.preheader.i:                               ; preds = %3
  %4 = zext i16 %2 to i32
  br label %.lr.ph.i

.lr.ph.i:                                         ; preds = %.lr.ph.i, %.lr.ph.preheader.i
  %.011.i = phi i32 [ %12, %.lr.ph.i ], [ %4, %.lr.ph.preheader.i ]
  %.0610.i = phi ptr [ %6, %.lr.ph.i ], [ %0, %.lr.ph.preheader.i ]
  %.079.i = phi i32 [ %5, %.lr.ph.i ], [ %1, %.lr.ph.preheader.i ]
  %5 = add i32 %.079.i, -1
  %6 = getelementptr i8, ptr %.0610.i, i64 1
  %7 = load i8, ptr %.0610.i, align 1
  %.0.tr.i = trunc i32 %.011.i to i8
  %.narrow.i = xor i8 %7, %.0.tr.i
  %8 = zext i8 %.narrow.i to i64
  %9 = getelementptr i32, ptr @crc16_precompiled_9949_reverse, i64 %8
  %10 = load i32, ptr %9, align 4
  %11 = lshr i32 %.011.i, 8
  %12 = xor i32 %10, %11
  %.not.i = icmp eq i32 %5, 0
  br i1 %.not.i, label %._crit_edge.loopexit.i, label %.lr.ph.i, !llvm.loop !4

._crit_edge.loopexit.i:                           ; preds = %.lr.ph.i
  %13 = trunc i32 %12 to i16
  br label %crc16_reflected.exit

crc16_reflected.exit:                             ; preds = %3, %._crit_edge.loopexit.i
  %.0.lcssa.i = phi i16 [ %2, %3 ], [ %13, %._crit_edge.loopexit.i ]
  ret i16 %.0.lcssa.i
}